; Function Attrs: mustprogress uwtable
define hidden void @_ZN5osgeo4proj9operation19CoordinateOperationC2ERKS2_(ptr noundef nonnull align 8 dereferenceable(72) %0, ptr noundef nonnull align 8 dereferenceable(72) %1) unnamed_addr #0 align 2 personality ptr @__gxx_personality_v0 {
  tail call void @_ZN5osgeo4proj6common11ObjectUsageC2ERKS2_(ptr noundef nonnull align 8 dereferenceable(48) %0, ptr noundef nonnull align 8 dereferenceable(48) %1)
  %3 = getelementptr inbounds nuw i8, ptr %0, i64 48
  %4 = getelementptr inbounds nuw i8, ptr %0, i64 56
  store ptr getelementptr inbounds nuw inrange(-16, 56) (i8, ptr @_ZTVN5osgeo4proj9operation19CoordinateOperationE, i64 16), ptr %0, align 8, !tbaa !3
  %5 = getelementptr inbounds nuw i8, ptr %0, i64 16
  store ptr getelementptr inbounds nuw inrange(-16, 24) (i8, ptr @_ZTVN5osgeo4proj9operation19CoordinateOperationE, i64 88), ptr %5, align 8, !tbaa !3
  %6 = getelementptr inbounds nuw i8, ptr %0, i64 24
  store ptr getelementptr inbounds nuw inrange(-16, 24) (i8, ptr @_ZTVN5osgeo4proj9operation19CoordinateOperationE, i64 128), ptr %6, align 8, !tbaa !3
  store ptr getelementptr inbounds nuw inrange(-16, 24) (i8, ptr @_ZTVN5osgeo4proj9operation19CoordinateOperationE, i64 168), ptr %3, align 8, !tbaa !3
  store ptr getelementptr inbounds nuw inrange(-16, 24) (i8, ptr @_ZTVN5osgeo4proj9operation19CoordinateOperationE, i64 208), ptr %4, align 8, !tbaa !3
  %7 = getelementptr inbounds nuw i8, ptr %1, i64 64
  %8 = load ptr, ptr %7, align 8, !tbaa !27
  tail call void @llvm.experimental.noalias.scope.decl(metadata !29)
  %9 = invoke noalias noundef nonnull dereferenceable(160) ptr @_Znwm(i64 noundef 160) #48
          to label %.noexc unwind label %14

.noexc:                                           ; preds = %2
  invoke void @_ZN5osgeo4proj9operation19CoordinateOperation7PrivateC2ERKS3_(ptr noundef nonnull align 8 dereferenceable(160) %9, ptr noundef nonnull align 8 dereferenceable(160) %8)
          to label %12 unwind label %10, !noalias !29

10:                                               ; preds = %.noexc
  %11 = landingpad { ptr, i32 }
          cleanup
  tail call void @_ZdlPvm(ptr noundef nonnull %9, i64 noundef 160) #47, !noalias !29
  br label %.body

12:                                               ; preds = %.noexc
  %13 = getelementptr inbounds nuw i8, ptr %0, i64 64
  store ptr %9, ptr %13, align 8, !tbaa !27, !alias.scope !29
  ret void

14:                                               ; preds = %2
  %15 = landingpad { ptr, i32 }
          cleanup
  br label %.body

.body:                                            ; preds = %10, %14
  %eh.lpad-body = phi { ptr, i32 } [ %15, %14 ], [ %11, %10 ]
  tail call void @_ZN5osgeo4proj2io15IJSONExportableD2Ev(ptr noundef nonnull align 8 dereferenceable(8) %4) #46
  tail call void @_ZN5osgeo4proj2io21IPROJStringExportableD2Ev(ptr noundef nonnull align 8 dereferenceable(8) %3) #46
  tail call void @_ZN5osgeo4proj6common11ObjectUsageD2Ev(ptr noundef nonnull align 8 dereferenceable(48) %0) #46
  resume { ptr, i32 } %eh.lpad-body
}